libnotcurses++.so.1 libnotcurses++1 #MINVER#
 _ZN4ncpp10init_errorD0Ev@Base 1.1.0
 _ZN4ncpp10init_errorD1Ev@Base 1.1.0
 _ZN4ncpp10init_errorD2Ev@Base 1.1.0
 _ZN4ncpp16invalid_argumentD0Ev@Base 1.1.0
 _ZN4ncpp16invalid_argumentD1Ev@Base 1.1.0
 _ZN4ncpp16invalid_argumentD2Ev@Base 1.1.0
 _ZN4ncpp19invalid_state_errorD0Ev@Base 1.1.0
 _ZN4ncpp19invalid_state_errorD1Ev@Base 1.1.0
 _ZN4ncpp19invalid_state_errorD2Ev@Base 1.1.0
 _ZN4ncpp4Root26ncpp_invalid_state_messageE@Base 1.1.0
 _ZN4ncpp5Plane11unmap_planeEPS0_@Base 1.1.0
 _ZN4ncpp5Plane15plane_map_mutexE@Base 1.1.0
 _ZN4ncpp5Plane9map_planeEP7ncplanePS0_@Base 1.1.0
 _ZN4ncpp5Plane9plane_mapE@Base 1.1.0
 _ZN4ncpp5PlaneD1Ev@Base 1.1.0
 _ZN4ncpp5PlaneD2Ev@Base 1.1.0
 _ZN4ncpp6Tablet10map_tabletEP6tablet@Base 1.1.0
 _ZN4ncpp6Tablet10tablet_mapE@Base 1.1.0
 _ZN4ncpp6Tablet12unmap_tabletEPS0_@Base 1.1.0
 _ZN4ncpp6Tablet16tablet_map_mutexE@Base 1.1.0
 _ZN4ncpp6Visual13destroy_planeEPNS_5PlaneE@Base 1.1.0
 _ZN4ncpp9NotCurses10init_mutexE@Base 1.1.0
 _ZN4ncpp9NotCurses25default_notcurses_optionsE@Base 1.1.0
 _ZN4ncpp9NotCurses7get_topEv@Base 1.1.0
 _ZN4ncpp9NotCurses9_instanceE@Base 1.1.0
 _ZN4ncpp9NotCursesC1ERK17notcurses_optionsP8_IO_FILE@Base 1.1.0
 _ZN4ncpp9NotCursesC2ERK17notcurses_optionsP8_IO_FILE@Base 1.1.0
 _ZN4ncpp9NotCursesD1Ev@Base 1.1.1
 _ZN4ncpp9NotCursesD2Ev@Base 1.1.1
 _ZN4ncpp9PanelReel15default_optionsE@Base 1.1.0
 _ZNK4ncpp4Root13get_notcursesEv@Base 1.1.0
 _ZNK4ncpp4Root20is_notcurses_stoppedEv@Base 1.1.0
 _ZNK4ncpp6Tablet9get_planeEv@Base 1.1.0
 _ZNK4ncpp6Visual9get_planeEv@Base 1.1.0
 _ZNK4ncpp9PanelReel9get_planeEv@Base 1.1.0
 _ZTIN4ncpp10init_errorE@Base 1.1.0
 _ZTIN4ncpp16invalid_argumentE@Base 1.1.0
 _ZTIN4ncpp19invalid_state_errorE@Base 1.1.0
 _ZTIPN4ncpp10init_errorE@Base 1.1.0
 _ZTIPN4ncpp16invalid_argumentE@Base 1.1.0
 _ZTIPN4ncpp19invalid_state_errorE@Base 1.1.0
 _ZTSN4ncpp10init_errorE@Base 1.1.0
 _ZTSN4ncpp16invalid_argumentE@Base 1.1.0
 _ZTSN4ncpp19invalid_state_errorE@Base 1.1.0
 _ZTSPN4ncpp10init_errorE@Base 1.1.0
 _ZTSPN4ncpp16invalid_argumentE@Base 1.1.0
 _ZTSPN4ncpp19invalid_state_errorE@Base 1.1.0
 _ZTVN4ncpp10init_errorE@Base 1.1.0
 _ZTVN4ncpp16invalid_argumentE@Base 1.1.0
 _ZTVN4ncpp19invalid_state_errorE@Base 1.1.0
